(lp0
(I0
F0.5
tp1
a(I1
F0.19
tp2
a(I2
F0.23
tp3
a(I3
F0.19
tp4
a(I4
F7.58
tp5
a(I5
F6.81
tp6
a(I6
F6.28
tp7
a(I7
F13.93
tp8
a(I8
F0.23
tp9
a(I9
F0.25
tp10
a(I10
F6.49
tp11
a(I11
F0.35
tp12
a(I12
F1.48
tp13
a(I13
F0.32
tp14
a(I14
F0.27
tp15
a(I15
F0.33
tp16
a(I16
F0.3
tp17
a(I17
F0.25
tp18
a(I18
F1.59
tp19
a(I19
F0.37
tp20
a(I20
F4.28
tp21
a(I21
F3.04
tp22
a(I22
F0.32
tp23
a(I23
F0.39
tp24
a(I24
F0.23
tp25
a(I25
F2.76
tp26
a(I26
F7.36
tp27
a(I27
F5.5
tp28
a(I28
F5.78
tp29
a(I29
F3.36
tp30
a(I30
F3.76
tp31
a(I31
F0.39
tp32
a(I32
F9.09
tp33
a(I33
F12.39
tp34
a(I34
F16.65
tp35
a(I35
F5.05
tp36
a(I36
F0.26
tp37
a(I37
F0.25
tp38
a(I38
F11.12
tp39
a(I39
F3.15
tp40
a(I40
F30.18
tp41
a(I41
F8.43
tp42
a(I42
F0.23
tp43
a(I43
F0.2
tp44
a(I44
F0.17
tp45
a(I45
F28.19
tp46
a(I46
F0.5
tp47
a(I47
F52.6
tp48
a(I48
F15.74
tp49
a(I49
F0.23
tp50
a(I50
F0.26
tp51
a(I51
F25.99
tp52
a(I52
F0.2
tp53
a(I53
F22.14
tp54
a(I54
F0.32
tp55
a(I55
F0.29
tp56
a(I56
F3.58
tp57
a(I57
F1.85
tp58
a(I58
F0.27
tp59
a(I59
F8.99
tp60
a(I60
F0.29
tp61
a(I61
F7.2
tp62
a(I62
F7.37
tp63
a(I63
F0.56
tp64
a(I64
F30.0
tp65
a(I65
F0.36
tp66
a(I66
F0.99
tp67
a(I67
F0.42
tp68
a(I68
F0.31
tp69
a(I69
F0.31
tp70
a(I70
F0.35
tp71
a(I71
F0.46
tp72
a(I72
F10.76
tp73
a(I73
F1.37
tp74
a(I74
F0.16
tp75
a(I75
F0.32
tp76
a(I76
F26.46
tp77
a(I77
F0.2
tp78
a(I78
F0.22
tp79
a(I79
F9.42
tp80
a(I80
F22.06
tp81
a(I81
F24.67
tp82
a(I82
F26.39
tp83
a(I83
F8.02
tp84
a.